target datalayout = "e-m:e-p270:32:32-p271:32:32-p272:64:64-i64:64-i128:128-f80:128-n8:16:32:64-S128"
target triple = "x86_64-pc-linux-gnu"

@rb_cSockOpt = global i64 0, align 8

; Function Attrs: inlinehint nounwind sspstrong willreturn memory(none) uwtable
define internal i64 @RB_INT2FIX(i64 noundef %0) #7 {
  %2 = alloca i64, align 8
  %3 = alloca i64, align 8
  %4 = alloca i64, align 8
  %5 = alloca i64, align 8
  %6 = alloca i64, align 8
  %7 = alloca i64, align 8
  store i64 %0, ptr %2, align 8, !tbaa !10
  call void @llvm.lifetime.start.p0(i64 8, ptr %3) #17
  %8 = load i64, ptr %2, align 8, !tbaa !10
  store i64 %8, ptr %3, align 8, !tbaa !10
  call void @llvm.lifetime.start.p0(i64 8, ptr %4) #17
  %9 = load i64, ptr %3, align 8, !tbaa !10
  %10 = shl i64 %9, 1
  %11 = add i64 %10, 1
  store i64 %11, ptr %4, align 8, !tbaa !10
  call void @llvm.lifetime.start.p0(i64 8, ptr %5) #17
  %12 = load i64, ptr %4, align 8, !tbaa !10
  store i64 %12, ptr %5, align 8, !tbaa !10
  call void @llvm.lifetime.start.p0(i64 8, ptr %6) #17
  %13 = load i64, ptr %5, align 8, !tbaa !10
  store i64 %13, ptr %6, align 8, !tbaa !10
  call void @llvm.lifetime.start.p0(i64 8, ptr %7) #17
  %14 = load i64, ptr %6, align 8, !tbaa !10
  store i64 %14, ptr %7, align 8, !tbaa !10
  %15 = load i64, ptr %7, align 8, !tbaa !10
  call void @llvm.lifetime.end.p0(i64 8, ptr %7) #17
  call void @llvm.lifetime.end.p0(i64 8, ptr %6) #17
  call void @llvm.lifetime.end.p0(i64 8, ptr %5) #17
  call void @llvm.lifetime.end.p0(i64 8, ptr %4) #17
  call void @llvm.lifetime.end.p0(i64 8, ptr %3) #17
  ret i64 %15
}

; Function Attrs: inlinehint nounwind sspstrong uwtable
define internal i64 @rb_int2num_inline(i32 noundef %0) #3 {
  %2 = alloca i64, align 8
  %3 = alloca i32, align 4
  store i32 %0, ptr %3, align 4, !tbaa !6
  %4 = load i32, ptr %3, align 4, !tbaa !6
  %5 = sext i32 %4 to i64
  %6 = icmp slt i64 %5, 4611686018427387904
  br i1 %6, label %7, label %15

7:                                                ; preds = %1
  %8 = load i32, ptr %3, align 4, !tbaa !6
  %9 = sext i32 %8 to i64
  %10 = icmp sge i64 %9, -4611686018427387904
  br i1 %10, label %11, label %15

11:                                               ; preds = %7
  %12 = load i32, ptr %3, align 4, !tbaa !6
  %13 = sext i32 %12 to i64
  %14 = call i64 @RB_INT2FIX(i64 noundef %13) #19
  store i64 %14, ptr %2, align 8
  br label %19

15:                                               ; preds = %7, %1
  %16 = load i32, ptr %3, align 4, !tbaa !6
  %17 = sext i32 %16 to i64
  %18 = call i64 @rb_int2big(i64 noundef %17)
  store i64 %18, ptr %2, align 8
  br label %19

19:                                               ; preds = %15, %11
  %20 = load i64, ptr %2, align 8
  ret i64 %20
}

; Function Attrs: nounwind sspstrong uwtable
define i64 @rsock_sockopt_new(i32 noundef %0, i32 noundef %1, i32 noundef %2, i64 noundef %3) #0 {
  %5 = alloca i32, align 4
  %6 = alloca i32, align 4
  %7 = alloca i32, align 4
  %8 = alloca i64, align 8
  %9 = alloca i64, align 8
  store i32 %0, ptr %5, align 4, !tbaa !6
  store i32 %1, ptr %6, align 4, !tbaa !6
  store i32 %2, ptr %7, align 4, !tbaa !6
  store i64 %3, ptr %8, align 8, !tbaa !10
  call void @llvm.lifetime.start.p0(i64 8, ptr %9) #17
  %10 = load i64, ptr @rb_cSockOpt, align 8, !tbaa !10
  %11 = call i64 @rb_obj_alloc(i64 noundef %10)
  store i64 %11, ptr %9, align 8, !tbaa !10
  %12 = call i64 @rb_string_value(ptr noundef %8)
  %13 = load i64, ptr %9, align 8, !tbaa !10
  %14 = load i32, ptr %5, align 4, !tbaa !6
  %15 = call i64 @rb_int2num_inline(i32 noundef %14)
  %16 = load i32, ptr %6, align 4, !tbaa !6
  %17 = call i64 @rb_int2num_inline(i32 noundef %16)
  %18 = load i32, ptr %7, align 4, !tbaa !6
  %19 = call i64 @rb_int2num_inline(i32 noundef %18)
  %20 = load i64, ptr %8, align 8, !tbaa !10
  %21 = call i64 @sockopt_initialize(i64 noundef %13, i64 noundef %15, i64 noundef %17, i64 noundef %19, i64 noundef %20)
  %22 = load i64, ptr %9, align 8, !tbaa !10
  call void @llvm.lifetime.end.p0(i64 8, ptr %9) #17
  ret i64 %22
}

; Function Attrs: inlinehint nounwind sspstrong willreturn memory(none) uwtable
define internal zeroext i1 @RB_TEST(i64 noundef %0) #7 {
  %2 = alloca i64, align 8
  store i64 %0, ptr %2, align 8, !tbaa !10
  %3 = load i64, ptr %2, align 8, !tbaa !10
  %4 = and i64 %3, -5
  %5 = icmp ne i64 %4, 0
  ret i1 %5
}

; Function Attrs: nounwind sspstrong uwtable
define internal i64 @sockopt_s_bool(i64 noundef %0, i64 noundef %1, i64 noundef %2, i64 noundef %3, i64 noundef %4) #0 {
  %6 = alloca i64, align 8
  %7 = alloca i64, align 8
  %8 = alloca i64, align 8
  %9 = alloca i64, align 8
  %10 = alloca i64, align 8
  %11 = alloca i32, align 4
  %12 = alloca i32, align 4
  %13 = alloca i32, align 4
  %14 = alloca i32, align 4
  store i64 %0, ptr %6, align 8, !tbaa !10
  store i64 %1, ptr %7, align 8, !tbaa !10
  store i64 %2, ptr %8, align 8, !tbaa !10
  store i64 %3, ptr %9, align 8, !tbaa !10
  store i64 %4, ptr %10, align 8, !tbaa !10
  call void @llvm.lifetime.start.p0(i64 4, ptr %11) #17
  %15 = load i64, ptr %7, align 8, !tbaa !10
  %16 = call i32 @rsock_family_arg(i64 noundef %15)
  store i32 %16, ptr %11, align 4, !tbaa !6
  call void @llvm.lifetime.start.p0(i64 4, ptr %12) #17
  %17 = load i32, ptr %11, align 4, !tbaa !6
  %18 = load i64, ptr %8, align 8, !tbaa !10
  %19 = call i32 @rsock_level_arg(i32 noundef %17, i64 noundef %18)
  store i32 %19, ptr %12, align 4, !tbaa !6
  call void @llvm.lifetime.start.p0(i64 4, ptr %13) #17
  %20 = load i32, ptr %11, align 4, !tbaa !6
  %21 = load i32, ptr %12, align 4, !tbaa !6
  %22 = load i64, ptr %9, align 8, !tbaa !10
  %23 = call i32 @rsock_optname_arg(i32 noundef %20, i32 noundef %21, i64 noundef %22)
  store i32 %23, ptr %13, align 4, !tbaa !6
  call void @llvm.lifetime.start.p0(i64 4, ptr %14) #17
  %24 = load i64, ptr %10, align 8, !tbaa !10
  %25 = call zeroext i1 @RB_TEST(i64 noundef %24) #19
  %26 = select i1 %25, i32 1, i32 0
  store i32 %26, ptr %14, align 4, !tbaa !6
  %27 = load i32, ptr %11, align 4, !tbaa !6
  %28 = load i32, ptr %12, align 4, !tbaa !6
  %29 = load i32, ptr %13, align 4, !tbaa !6
  br i1 false, label %30, label %31

30:                                               ; preds = %5
  br label %31

31:                                               ; preds = %30, %5
  %32 = phi i1 [ false, %5 ], [ true, %30 ]
  %33 = select i1 %32, ptr @rb_str_new_static, ptr @rb_str_new
  %34 = call i64 %33(ptr noundef %14, i64 noundef 4)
  %35 = call i64 @rsock_sockopt_new(i32 noundef %27, i32 noundef %28, i32 noundef %29, i64 noundef %34)
  call void @llvm.lifetime.end.p0(i64 4, ptr %14) #17
  call void @llvm.lifetime.end.p0(i64 4, ptr %13) #17
  call void @llvm.lifetime.end.p0(i64 4, ptr %12) #17
  call void @llvm.lifetime.end.p0(i64 4, ptr %11) #17
  ret i64 %35
}