; Function Attrs: nounwind sspstrong uwtable
define internal i64 @sockopt_s_bool(i64 %0, i64 noundef %1, i64 noundef %2, i64 noundef %3, i64 noundef %4) #0 {
  %6 = alloca i64, align 8
  %7 = alloca i32, align 4
  %8 = tail call i32 @rsock_family_arg(i64 noundef %1) #6
  %9 = tail call i32 @rsock_level_arg(i32 noundef %8, i64 noundef %2) #6
  %10 = tail call i32 @rsock_optname_arg(i32 noundef %8, i32 noundef %9, i64 noundef %3) #6
  call void @llvm.lifetime.start.p0(i64 4, ptr nonnull %7) #6
  %11 = and i64 %4, -5
  %12 = icmp ne i64 %11, 0
  %13 = zext i1 %12 to i32
  store i32 %13, ptr %7, align 4, !tbaa !77
  %14 = call i64 @rb_str_new(ptr noundef nonnull %7, i64 noundef 4) #6
  call void @llvm.lifetime.start.p0(i64 8, ptr nonnull %6)
  store i64 %14, ptr %6, align 8, !tbaa !6
  %15 = load i64, ptr @rb_cSockOpt, align 8, !tbaa !6
  %16 = call i64 @rb_obj_alloc(i64 noundef %15) #6
  %17 = call i64 @rb_string_value(ptr noundef nonnull %6) #6
  %18 = sext i32 %8 to i64
  %19 = shl nsw i64 %18, 1
  %20 = or disjoint i64 %19, 1
  %21 = sext i32 %9 to i64
  %22 = shl nsw i64 %21, 1
  %23 = or disjoint i64 %22, 1
  %24 = sext i32 %10 to i64
  %25 = shl nsw i64 %24, 1
  %26 = or disjoint i64 %25, 1
  %27 = load i64, ptr %6, align 8, !tbaa !6
  %28 = call i64 @sockopt_initialize(i64 noundef %16, i64 noundef %20, i64 noundef %23, i64 noundef %26, i64 noundef %27)
  call void @llvm.lifetime.end.p0(i64 8, ptr nonnull %6)
  call void @llvm.lifetime.end.p0(i64 4, ptr nonnull %7) #6
  ret i64 %16
}